target datalayout = "e-m:e-p270:32:32-p271:32:32-p272:64:64-i64:64-i128:128-f80:128-n8:16:32:64-S128"
target triple = "x86_64-pc-linux-gnu"

%struct.FunctionCallInfoBaseData = type { ptr, ptr, ptr, i32, i8, i16, [0 x %struct.NullableDatum] }
%struct.NullableDatum = type { i64, i8 }
%struct.LOCKTAG = type { i32, i32, i32, i16, i8, i8 }

@MyDatabaseId = external global i32, align 4

; Function Attrs: inlinehint nounwind uwtable
define internal i64 @BoolGetDatum(i1 noundef zeroext %0) #3 {
  %2 = alloca i8, align 1
  %3 = zext i1 %0 to i8
  store i8 %3, ptr %2, align 1
  %4 = load i8, ptr %2, align 1, !range !6, !noundef !7
  %5 = trunc i8 %4 to i1
  %6 = select i1 %5, i32 1, i32 0
  %7 = sext i32 %6 to i64
  ret i64 %7
}

; Function Attrs: inlinehint nounwind uwtable
define internal i32 @DatumGetInt32(i64 noundef %0) #3 {
  %2 = alloca i64, align 8
  store i64 %0, ptr %2, align 8
  %3 = load i64, ptr %2, align 8
  %4 = trunc i64 %3 to i32
  ret i32 %4
}

; Function Attrs: nounwind uwtable
define dso_local i64 @pg_try_advisory_lock_shared_int4(ptr noundef %0) #0 {
  %2 = alloca ptr, align 8
  %3 = alloca i32, align 4
  %4 = alloca i32, align 4
  %5 = alloca %struct.LOCKTAG, align 4
  %6 = alloca i32, align 4
  store ptr %0, ptr %2, align 8
  call void @llvm.lifetime.start.p0(i64 4, ptr %3) #5
  %7 = load ptr, ptr %2, align 8
  %8 = getelementptr inbounds nuw %struct.FunctionCallInfoBaseData, ptr %7, i32 0, i32 6
  %9 = getelementptr inbounds [0 x %struct.NullableDatum], ptr %8, i64 0, i64 0
  %10 = getelementptr inbounds nuw %struct.NullableDatum, ptr %9, i32 0, i32 0
  %11 = load i64, ptr %10, align 8
  %12 = call i32 @DatumGetInt32(i64 noundef %11)
  store i32 %12, ptr %3, align 4
  call void @llvm.lifetime.start.p0(i64 4, ptr %4) #5
  %13 = load ptr, ptr %2, align 8
  %14 = getelementptr inbounds nuw %struct.FunctionCallInfoBaseData, ptr %13, i32 0, i32 6
  %15 = getelementptr inbounds [0 x %struct.NullableDatum], ptr %14, i64 0, i64 1
  %16 = getelementptr inbounds nuw %struct.NullableDatum, ptr %15, i32 0, i32 0
  %17 = load i64, ptr %16, align 8
  %18 = call i32 @DatumGetInt32(i64 noundef %17)
  store i32 %18, ptr %4, align 4
  call void @llvm.lifetime.start.p0(i64 16, ptr %5) #5
  call void @llvm.lifetime.start.p0(i64 4, ptr %6) #5
  %19 = load i32, ptr @MyDatabaseId, align 4
  %20 = getelementptr inbounds nuw %struct.LOCKTAG, ptr %5, i32 0, i32 0
  store i32 %19, ptr %20, align 4
  %21 = load i32, ptr %3, align 4
  %22 = getelementptr inbounds nuw %struct.LOCKTAG, ptr %5, i32 0, i32 1
  store i32 %21, ptr %22, align 4
  %23 = load i32, ptr %4, align 4
  %24 = getelementptr inbounds nuw %struct.LOCKTAG, ptr %5, i32 0, i32 2
  store i32 %23, ptr %24, align 4
  %25 = getelementptr inbounds nuw %struct.LOCKTAG, ptr %5, i32 0, i32 3
  store i16 2, ptr %25, align 4
  %26 = getelementptr inbounds nuw %struct.LOCKTAG, ptr %5, i32 0, i32 4
  store i8 10, ptr %26, align 2
  %27 = getelementptr inbounds nuw %struct.LOCKTAG, ptr %5, i32 0, i32 5
  store i8 2, ptr %27, align 1
  %28 = call i32 @LockAcquire(ptr noundef %5, i32 noundef 5, i1 noundef zeroext true, i1 noundef zeroext true)
  store i32 %28, ptr %6, align 4
  %29 = load i32, ptr %6, align 4
  %30 = icmp ne i32 %29, 0
  %31 = call i64 @BoolGetDatum(i1 noundef zeroext %30)
  call void @llvm.lifetime.end.p0(i64 4, ptr %6) #5
  call void @llvm.lifetime.end.p0(i64 16, ptr %5) #5
  call void @llvm.lifetime.end.p0(i64 4, ptr %4) #5
  call void @llvm.lifetime.end.p0(i64 4, ptr %3) #5
  ret i64 %31
}